target datalayout = "e-m:e-p270:32:32-p271:32:32-p272:64:64-i64:64-i128:128-f80:128-n8:16:32:64-S128"
target triple = "x86_64-pc-linux-gnu"

%struct.OSQPCscMatrix = type { i64, i64, ptr, ptr, ptr, i64, i64 }

; Function Attrs: nounwind uwtable
define void @csc_lmult_diag(ptr noundef %0, ptr noundef %1) #0 {
  %3 = alloca ptr, align 8
  %4 = alloca ptr, align 8
  %5 = alloca i64, align 8
  %6 = alloca i64, align 8
  %7 = alloca i64, align 8
  %8 = alloca ptr, align 8
  %9 = alloca ptr, align 8
  %10 = alloca ptr, align 8
  store ptr %0, ptr %3, align 8, !tbaa !16
  store ptr %1, ptr %4, align 8, !tbaa !3
  call void @llvm.lifetime.start.p0(i64 8, ptr %5) #3
  call void @llvm.lifetime.start.p0(i64 8, ptr %6) #3
  call void @llvm.lifetime.start.p0(i64 8, ptr %7) #3
  %11 = load ptr, ptr %3, align 8, !tbaa !16
  %12 = getelementptr inbounds nuw %struct.OSQPCscMatrix, ptr %11, i32 0, i32 1
  %13 = load i64, ptr %12, align 8, !tbaa !24
  store i64 %13, ptr %7, align 8, !tbaa !10
  call void @llvm.lifetime.start.p0(i64 8, ptr %8) #3
  %14 = load ptr, ptr %3, align 8, !tbaa !16
  %15 = getelementptr inbounds nuw %struct.OSQPCscMatrix, ptr %14, i32 0, i32 2
  %16 = load ptr, ptr %15, align 8, !tbaa !23
  store ptr %16, ptr %8, align 8, !tbaa !17
  call void @llvm.lifetime.start.p0(i64 8, ptr %9) #3
  %17 = load ptr, ptr %3, align 8, !tbaa !16
  %18 = getelementptr inbounds nuw %struct.OSQPCscMatrix, ptr %17, i32 0, i32 3
  %19 = load ptr, ptr %18, align 8, !tbaa !26
  store ptr %19, ptr %9, align 8, !tbaa !17
  call void @llvm.lifetime.start.p0(i64 8, ptr %10) #3
  %20 = load ptr, ptr %3, align 8, !tbaa !16
  %21 = getelementptr inbounds nuw %struct.OSQPCscMatrix, ptr %20, i32 0, i32 4
  %22 = load ptr, ptr %21, align 8, !tbaa !19
  store ptr %22, ptr %10, align 8, !tbaa !3
  store i64 0, ptr %5, align 8, !tbaa !10
  br label %23

23:                                               ; preds = %57, %2
  %24 = load i64, ptr %5, align 8, !tbaa !10
  %25 = load i64, ptr %7, align 8, !tbaa !10
  %26 = icmp slt i64 %24, %25
  br i1 %26, label %27, label %60

27:                                               ; preds = %23
  %28 = load ptr, ptr %8, align 8, !tbaa !17
  %29 = load i64, ptr %5, align 8, !tbaa !10
  %30 = getelementptr inbounds i64, ptr %28, i64 %29
  %31 = load i64, ptr %30, align 8, !tbaa !10
  store i64 %31, ptr %6, align 8, !tbaa !10
  br label %32

32:                                               ; preds = %53, %27
  %33 = load i64, ptr %6, align 8, !tbaa !10
  %34 = load ptr, ptr %8, align 8, !tbaa !17
  %35 = load i64, ptr %5, align 8, !tbaa !10
  %36 = add nsw i64 %35, 1
  %37 = getelementptr inbounds i64, ptr %34, i64 %36
  %38 = load i64, ptr %37, align 8, !tbaa !10
  %39 = icmp slt i64 %33, %38
  br i1 %39, label %40, label %56

40:                                               ; preds = %32
  %41 = load ptr, ptr %4, align 8, !tbaa !3
  %42 = load ptr, ptr %9, align 8, !tbaa !17
  %43 = load i64, ptr %6, align 8, !tbaa !10
  %44 = getelementptr inbounds i64, ptr %42, i64 %43
  %45 = load i64, ptr %44, align 8, !tbaa !10
  %46 = getelementptr inbounds double, ptr %41, i64 %45
  %47 = load double, ptr %46, align 8, !tbaa !8
  %48 = load ptr, ptr %10, align 8, !tbaa !3
  %49 = load i64, ptr %6, align 8, !tbaa !10
  %50 = getelementptr inbounds double, ptr %48, i64 %49
  %51 = load double, ptr %50, align 8, !tbaa !8
  %52 = fmul double %51, %47
  store double %52, ptr %50, align 8, !tbaa !8
  br label %53

53:                                               ; preds = %40
  %54 = load i64, ptr %6, align 8, !tbaa !10
  %55 = add nsw i64 %54, 1
  store i64 %55, ptr %6, align 8, !tbaa !10
  br label %32, !llvm.loop !27

56:                                               ; preds = %32
  br label %57

57:                                               ; preds = %56
  %58 = load i64, ptr %5, align 8, !tbaa !10
  %59 = add nsw i64 %58, 1
  store i64 %59, ptr %5, align 8, !tbaa !10
  br label %23, !llvm.loop !28

60:                                               ; preds = %23
  call void @llvm.lifetime.end.p0(i64 8, ptr %10) #3
  call void @llvm.lifetime.end.p0(i64 8, ptr %9) #3
  call void @llvm.lifetime.end.p0(i64 8, ptr %8) #3
  call void @llvm.lifetime.end.p0(i64 8, ptr %7) #3
  call void @llvm.lifetime.end.p0(i64 8, ptr %6) #3
  call void @llvm.lifetime.end.p0(i64 8, ptr %5) #3
  ret void
}