; Function Attrs: nofree norecurse nosync nounwind memory(readwrite, inaccessiblemem: none) uwtable
define void @csc_lmult_diag(ptr noundef readonly captures(none) %0, ptr noundef readonly captures(none) %1) local_unnamed_addr #3 {
  %3 = getelementptr inbounds nuw i8, ptr %0, i64 8
  %4 = load i64, ptr %3, align 8, !tbaa !21
  %5 = getelementptr inbounds nuw i8, ptr %0, i64 16
  %6 = load ptr, ptr %5, align 8, !tbaa !20
  %7 = getelementptr inbounds nuw i8, ptr %0, i64 24
  %8 = load ptr, ptr %7, align 8, !tbaa !23
  %9 = getelementptr inbounds nuw i8, ptr %0, i64 32
  %10 = load ptr, ptr %9, align 8, !tbaa !11
  %11 = icmp sgt i64 %4, 0
  br i1 %11, label %.lr.ph20.preheader, label %._crit_edge

.lr.ph20.preheader:                               ; preds = %2
  %.pre = load i64, ptr %6, align 8, !tbaa !17
  br label %.lr.ph20

.loopexit:                                        ; preds = %.lr.ph, %.lr.ph20
  %exitcond21.not = icmp eq i64 %13, %4
  br i1 %exitcond21.not, label %._crit_edge, label %.lr.ph20, !llvm.loop !24

.lr.ph20:                                         ; preds = %.lr.ph20.preheader, %.loopexit
  %12 = phi i64 [ %15, %.loopexit ], [ %.pre, %.lr.ph20.preheader ]
  %.019 = phi i64 [ %13, %.loopexit ], [ 0, %.lr.ph20.preheader ]
  %13 = add nuw nsw i64 %.019, 1
  %14 = getelementptr inbounds nuw i64, ptr %6, i64 %13
  %15 = load i64, ptr %14, align 8, !tbaa !17
  %16 = icmp slt i64 %12, %15
  br i1 %16, label %.lr.ph, label %.loopexit

.lr.ph:                                           ; preds = %.lr.ph20, %.lr.ph
  %.01718 = phi i64 [ %24, %.lr.ph ], [ %12, %.lr.ph20 ]
  %17 = getelementptr inbounds i64, ptr %8, i64 %.01718
  %18 = load i64, ptr %17, align 8, !tbaa !17
  %19 = getelementptr inbounds double, ptr %1, i64 %18
  %20 = load double, ptr %19, align 8, !tbaa !3
  %21 = getelementptr inbounds double, ptr %10, i64 %.01718
  %22 = load double, ptr %21, align 8, !tbaa !3
  %23 = fmul double %20, %22
  store double %23, ptr %21, align 8, !tbaa !3
  %24 = add nsw i64 %.01718, 1
  %exitcond.not = icmp eq i64 %24, %15
  br i1 %exitcond.not, label %.loopexit, label %.lr.ph, !llvm.loop !25

._crit_edge:                                      ; preds = %.loopexit, %2
  ret void
}